; Function Attrs: nounwind sspstrong uwtable
define internal range(i64 1, 32) i64 @d_lite_mon(i64 noundef %0) #0 {
  %2 = tail call ptr @rb_check_typeddata(i64 noundef %0, ptr noundef nonnull @d_lite_type) #21
  %3 = load i32, ptr %2, align 8, !tbaa !47
  %4 = and i32 %3, 128
  %.not.i = icmp eq i32 %4, 0
  br i1 %.not.i, label %5, label %46

5:                                                ; preds = %1
  %6 = and i32 %3, 4
  %.not.i.i = icmp eq i32 %6, 0
  br i1 %.not.i.i, label %7, label %m_mon.exit

7:                                                ; preds = %5
  %8 = getelementptr inbounds nuw i8, ptr %2, i64 4
  %9 = load i32, ptr %8, align 4, !tbaa !47
  %10 = tail call fastcc double @s_virtual_sg(ptr noundef nonnull %2)
  %11 = sitofp i32 %9 to double
  %12 = fcmp ogt double %10, %11
  br i1 %12, label %c_jd_to_civil.exit.i.i, label %13

13:                                               ; preds = %7
  %14 = fadd double %11, 0xC13C7DD040000000
  %15 = fdiv double %14, 0x40E1D58800000000
  %16 = tail call double @llvm.floor.f64(double %15)
  %17 = add nsw i32 %9, 1
  %18 = sitofp i32 %17 to double
  %19 = fadd double %16, %18
  %20 = fmul double %16, 2.500000e-01
  %21 = tail call double @llvm.floor.f64(double %20)
  %22 = fsub double %19, %21
  br label %c_jd_to_civil.exit.i.i

c_jd_to_civil.exit.i.i:                           ; preds = %13, %7
  %.0.i.i.i = phi double [ %22, %13 ], [ %11, %7 ]
  %23 = fadd double %.0.i.i.i, 1.524000e+03
  %24 = fadd double %23, -1.221000e+02
  %25 = fdiv double %24, 3.652500e+02
  %26 = tail call double @llvm.floor.f64(double %25)
  %27 = fmul double %26, 3.652500e+02
  %28 = tail call double @llvm.floor.f64(double %27)
  %29 = fsub double %23, %28
  %30 = fdiv double %29, 3.060010e+01
  %31 = tail call double @llvm.floor.f64(double %30)
  %32 = fcmp ugt double %31, 1.300000e+01
  %.026.v.i.i.i = select i1 %32, double -4.715000e+03, double -4.716000e+03
  %.026.i.i.i = fadd double %26, %.026.v.i.i.i
  %.025.v.i.i.i = select i1 %32, double -1.300000e+01, double -1.000000e+00
  %.025.i.i.i = fadd double %31, %.025.v.i.i.i
  %33 = fmul double %31, 3.060010e+01
  %34 = tail call double @llvm.floor.f64(double %33)
  %35 = fsub double %29, %34
  %36 = fptosi double %.026.i.i.i to i32
  %37 = fptosi double %.025.i.i.i to i32
  %38 = fptosi double %35 to i32
  %39 = getelementptr inbounds nuw i8, ptr %2, i64 20
  store i32 %36, ptr %39, align 4, !tbaa !47
  %40 = shl i32 %37, 22
  %41 = shl i32 %38, 17
  %42 = or i32 %40, %41
  %43 = getelementptr inbounds nuw i8, ptr %2, i64 24
  store i32 %42, ptr %43, align 8, !tbaa !47
  %44 = load i32, ptr %2, align 8, !tbaa !47
  %45 = or i32 %44, 4
  store i32 %45, ptr %2, align 8, !tbaa !47
  br label %m_mon.exit

46:                                               ; preds = %1
  tail call fastcc void @get_c_civil(ptr noundef nonnull %2)
  br label %m_mon.exit

m_mon.exit:                                       ; preds = %5, %c_jd_to_civil.exit.i.i, %46
  %.0.in.in.in.i = getelementptr inbounds nuw i8, ptr %2, i64 24
  %.0.in.in.i = load i32, ptr %.0.in.in.in.i, align 8, !tbaa !47
  %47 = lshr i32 %.0.in.in.i, 21
  %48 = and i32 %47, 30
  %49 = or disjoint i32 %48, 1
  %50 = zext nneg i32 %49 to i64
  ret i64 %50
}